; ModuleID = 'bench/openjdk/original/zUtils_posix.ll'
source_filename = "bench/openjdk/original/zUtils_posix.ll"
target datalayout = "e-m:e-p270:32:32-p271:32:32-p272:64:64-i64:64-i128:128-f80:128-n8:16:32:64-S128"
target triple = "x86_64-pc-linux-gnu"

@g_assert_poison = external local_unnamed_addr global ptr, align 8
@.str = private unnamed_addr constant [43 x i8] c"src/hotspot/os/posix/gc/z/zUtils_posix.cpp\00", align 1
@.str.4 = private unnamed_addr constant [24 x i8] c"posix_memalign() failed\00", align 1
@llvm.global_ctors = appending global [0 x { i32, ptr, ptr }] zeroinitializer

; Function Attrs: mustprogress nounwind uwtable
define hidden noundef i64 @_ZN6ZUtils13alloc_alignedEmm(i64 noundef %0, i64 noundef %1) local_unnamed_addr #0 align 2 {
  %3 = alloca ptr, align 8
  store ptr null, ptr %3, align 8
  %4 = call i32 @posix_memalign(ptr noundef nonnull %3, i64 noundef %0, i64 noundef %1) #4
  %.not = icmp eq i32 %4, 0
  br i1 %.not, label %7, label %5

5:                                                ; preds = %2
  %6 = load ptr, ptr @g_assert_poison, align 8
  store i8 88, ptr %6, align 1
  call void (i32, ptr, i32, ptr, ...) @_Z12report_fatal11VMErrorTypePKciS1_z(i32 noundef -536870912, ptr noundef nonnull @.str, i32 noundef 37, ptr noundef nonnull @.str.4) #5
  unreachable

7:                                                ; preds = %2
  %8 = load ptr, ptr %3, align 8
  call void @llvm.memset.p0.i64(ptr align 1 %8, i8 0, i64 %1, i1 false)
  %9 = load ptr, ptr %3, align 8
  %10 = ptrtoint ptr %9 to i64
  ret i64 %10
}

; Function Attrs: nofree nounwind
declare i32 @posix_memalign(ptr noundef, i64 noundef, i64 noundef) local_unnamed_addr #1

; Function Attrs: noreturn
declare void @_Z12report_fatal11VMErrorTypePKciS1_z(i32 noundef, ptr noundef, i32 noundef, ptr noundef, ...) local_unnamed_addr #2

; Function Attrs: mustprogress nocallback nofree nounwind willreturn memory(argmem: write)
declare void @llvm.memset.p0.i64(ptr nocapture writeonly, i8, i64, i1 immarg) #3


!llvm.module.flags = !{!0, !1, !2, !3, !4, !5}

!0 = !{i32 7, !"Dwarf Version", i32 5}
!1 = !{i32 2, !"Debug Info Version", i32 3}
!2 = !{i32 1, !"wchar_size", i32 4}
!3 = !{i32 8, !"PIC Level", i32 2}
!4 = !{i32 7, !"uwtable", i32 2}
!5 = !{i32 7, !"frame-pointer", i32 2}
